; Function Attrs: mustprogress nofree norecurse nosync nounwind memory(argmem: readwrite) uwtable
define noundef ptr @uprv_decNumberFromInt32_77(ptr noundef returned initializes((0, 10)) %0, i32 noundef %1) local_unnamed_addr #0 {
  %3 = getelementptr inbounds nuw i8, ptr %0, i64 8
  store i8 0, ptr %3, align 4, !tbaa !3
  %4 = getelementptr inbounds nuw i8, ptr %0, i64 4
  store i32 0, ptr %4, align 4, !tbaa !8
  store i32 1, ptr %0, align 4, !tbaa !9
  %5 = getelementptr inbounds nuw i8, ptr %0, i64 9
  store i8 0, ptr %5, align 1, !tbaa !10
  %6 = icmp eq i32 %1, 0
  br i1 %6, label %uprv_decNumberFromUInt32_77.exit.thread, label %.preheader.i.preheader

.preheader.i.preheader:                           ; preds = %2
  %.0 = tail call i32 @llvm.abs.i32(i32 %1, i1 false)
  br label %.preheader.i

.preheader.i:                                     ; preds = %.preheader.i.preheader, %.preheader.i
  %.018.i = phi ptr [ %10, %.preheader.i ], [ %5, %.preheader.i.preheader ]
  %.01417.i = phi i32 [ %9, %.preheader.i ], [ %.0, %.preheader.i.preheader ]
  %7 = urem i32 %.01417.i, 10
  %8 = trunc nuw nsw i32 %7 to i8
  store i8 %8, ptr %.018.i, align 1, !tbaa !10
  %9 = udiv i32 %.01417.i, 10
  %10 = getelementptr inbounds nuw i8, ptr %.018.i, i64 1
  %.not.i = icmp ult i32 %.01417.i, 10
  br i1 %.not.i, label %11, label %.preheader.i, !llvm.loop !11

11:                                               ; preds = %.preheader.i
  %12 = ptrtoint ptr %10 to i64
  %13 = ptrtoint ptr %5 to i64
  %14 = sub i64 %12, %13
  %15 = trunc i64 %14 to i32
  %sext.i = shl i64 %14, 32
  %16 = ashr exact i64 %sext.i, 32
  %17 = getelementptr i8, ptr %5, i64 %16
  %.01011.i.i = getelementptr i8, ptr %17, i64 -1
  %.not12.i.i = icmp ult ptr %.01011.i.i, %5
  br i1 %.not12.i.i, label %uprv_decNumberFromUInt32_77.exit, label %.lr.ph.i.i

.lr.ph.i.i:                                       ; preds = %11, %21
  %.01014.i.i = phi ptr [ %.010.i.i, %21 ], [ %.01011.i.i, %11 ]
  %.013.i.i = phi i32 [ %22, %21 ], [ %15, %11 ]
  %18 = load i8, ptr %.01014.i.i, align 1, !tbaa !10
  %19 = icmp ne i8 %18, 0
  %20 = icmp eq i32 %.013.i.i, 1
  %or.cond.i.i = select i1 %19, i1 true, i1 %20
  br i1 %or.cond.i.i, label %uprv_decNumberFromUInt32_77.exit, label %21

21:                                               ; preds = %.lr.ph.i.i
  %22 = add nsw i32 %.013.i.i, -1
  %.010.i.i = getelementptr i8, ptr %.01014.i.i, i64 -1
  %.not.i.i = icmp ult ptr %.010.i.i, %5
  br i1 %.not.i.i, label %uprv_decNumberFromUInt32_77.exit, label %.lr.ph.i.i, !llvm.loop !13

uprv_decNumberFromUInt32_77.exit:                 ; preds = %.lr.ph.i.i, %21, %11
  %.0.lcssa.i.i = phi i32 [ %15, %11 ], [ %.013.i.i, %.lr.ph.i.i ], [ 0, %21 ]
  store i32 %.0.lcssa.i.i, ptr %0, align 4, !tbaa !9
  %23 = icmp slt i32 %1, 0
  br i1 %23, label %24, label %uprv_decNumberFromUInt32_77.exit.thread

24:                                               ; preds = %uprv_decNumberFromUInt32_77.exit
  store i8 -128, ptr %3, align 4, !tbaa !3
  br label %uprv_decNumberFromUInt32_77.exit.thread

uprv_decNumberFromUInt32_77.exit.thread:          ; preds = %2, %24, %uprv_decNumberFromUInt32_77.exit
  ret ptr %0
}